; Function Attrs: null_pointer_is_valid sspstrong uwtable
define ptr @oid_get_from_encoded(ptr noundef %0, ptr noundef readonly captures(none) %1, i32 noundef %2, ptr noundef captures(none) %3, ptr noundef writeonly captures(none) %4, ptr noundef writeonly captures(none) %5) local_unnamed_addr #0 {
  %7 = icmp sgt i32 %2, 0
  br i1 %7, label %.lr.ph.preheader.i.i, label %._crit_edge.i.i

.lr.ph.preheader.i.i:                             ; preds = %6
  %wide.trip.count.i.i = zext nneg i32 %2 to i64
  br label %.lr.ph.i.i

.lr.ph.i.i:                                       ; preds = %.lr.ph.i.i, %.lr.ph.preheader.i.i
  %indvars.iv.i.i = phi i64 [ 0, %.lr.ph.preheader.i.i ], [ %indvars.iv.next.i.i, %.lr.ph.i.i ]
  %.06484.i.i = phi i32 [ 1, %.lr.ph.preheader.i.i ], [ %spec.select.i.i, %.lr.ph.i.i ]
  %8 = getelementptr i8, ptr %1, i64 %indvars.iv.i.i
  %9 = load i8, ptr %8, align 1
  %.not7282.i.i = icmp sgt i8 %9, -1
  %10 = zext i1 %.not7282.i.i to i32
  %spec.select.i.i = add i32 %.06484.i.i, %10
  %indvars.iv.next.i.i = add nuw nsw i64 %indvars.iv.i.i, 1
  %exitcond.not.i.i = icmp eq i64 %indvars.iv.next.i.i, %wide.trip.count.i.i
  br i1 %exitcond.not.i.i, label %._crit_edge.i.i, label %.lr.ph.i.i, !llvm.loop !13

._crit_edge.i.i:                                  ; preds = %.lr.ph.i.i, %6
  %.064.lcssa.i.i = phi i32 [ 1, %6 ], [ %spec.select.i.i, %.lr.ph.i.i ]
  %11 = zext i32 %.064.lcssa.i.i to i64
  %12 = shl nuw nsw i64 %11, 2
  %13 = tail call noalias ptr @wmem_alloc(ptr noundef %0, i64 noundef %12) #8
  store ptr %13, ptr %3, align 8
  %14 = getelementptr i32, ptr %13, i64 %11
  %15 = icmp eq i32 %.064.lcssa.i.i, 1
  br i1 %15, label %16, label %17

16:                                               ; preds = %._crit_edge.i.i
  store i32 0, ptr %13, align 4
  br label %oid_encoded2subid.exit

17:                                               ; preds = %._crit_edge.i.i
  br i1 %7, label %.lr.ph89.preheader.i.i, label %oid_encoded2subid.exit

.lr.ph89.preheader.i.i:                           ; preds = %17
  %wide.trip.count93.i.i = zext nneg i32 %2 to i64
  br label %.lr.ph89.i.i

.lr.ph89.i.i:                                     ; preds = %39, %.lr.ph89.preheader.i.i
  %indvars.iv91.i.i = phi i64 [ 0, %.lr.ph89.preheader.i.i ], [ %indvars.iv.next92.i.i, %39 ]
  %.05588.i.i = phi i64 [ 0, %.lr.ph89.preheader.i.i ], [ %.156.ph.i.i, %39 ]
  %.05887.i.i = phi i1 [ true, %.lr.ph89.preheader.i.i ], [ %.159.ph.i.i, %39 ]
  %.06186.i.i = phi ptr [ %13, %.lr.ph89.preheader.i.i ], [ %.162.ph.i.i, %39 ]
  %18 = getelementptr i8, ptr %1, i64 %indvars.iv91.i.i
  %19 = load i8, ptr %18, align 1
  %20 = shl i64 %.05588.i.i, 7
  %21 = and i8 %19, 127
  %22 = zext nneg i8 %21 to i64
  %23 = or disjoint i64 %20, %22
  %.not.i.i = icmp sgt i8 %19, -1
  br i1 %.not.i.i, label %24, label %39

24:                                               ; preds = %.lr.ph89.i.i
  br i1 %.05887.i.i, label %25, label %32

25:                                               ; preds = %24
  %26 = icmp ugt i64 %23, 39
  %27 = add i64 %23, -40
  %spec.select73.i.i = select i1 %26, i64 %27, i64 %23
  %spec.select74.i.i = zext i1 %26 to i32
  %28 = icmp ugt i64 %spec.select73.i.i, 39
  %29 = select i1 %26, i32 2, i32 1
  %30 = add i64 %spec.select73.i.i, -40
  %.4.i.i = select i1 %28, i64 %30, i64 %spec.select73.i.i
  %.1.i.i = select i1 %28, i32 %29, i32 %spec.select74.i.i
  %31 = getelementptr i8, ptr %.06186.i.i, i64 4
  store i32 %.1.i.i, ptr %.06186.i.i, align 4
  br label %32

32:                                               ; preds = %25, %24
  %.263.i.i = phi ptr [ %31, %25 ], [ %.06186.i.i, %24 ]
  %.257.i.i = phi i64 [ %.4.i.i, %25 ], [ %23, %24 ]
  %33 = icmp uge ptr %.263.i.i, %14
  %34 = icmp ugt i64 %.257.i.i, 4294967295
  %or.cond5.i.i = select i1 %33, i1 true, i1 %34
  br i1 %or.cond5.i.i, label %oid_encoded2subid.exit.thread, label %35

35:                                               ; preds = %32
  %36 = trunc nuw i64 %.257.i.i to i32
  %37 = getelementptr i8, ptr %.263.i.i, i64 4
  store i32 %36, ptr %.263.i.i, align 4
  br label %39

oid_encoded2subid.exit.thread:                    ; preds = %32
  %38 = load ptr, ptr %3, align 8
  tail call void @wmem_free(ptr noundef %0, ptr noundef %38)
  store ptr null, ptr %3, align 8
  br label %44

39:                                               ; preds = %35, %.lr.ph89.i.i
  %.162.ph.i.i = phi ptr [ %.06186.i.i, %.lr.ph89.i.i ], [ %37, %35 ]
  %.159.ph.i.i = phi i1 [ %.05887.i.i, %.lr.ph89.i.i ], [ false, %35 ]
  %.156.ph.i.i = phi i64 [ %23, %.lr.ph89.i.i ], [ 0, %35 ]
  %indvars.iv.next92.i.i = add nuw nsw i64 %indvars.iv91.i.i, 1
  %exitcond94.not.i.i = icmp eq i64 %indvars.iv.next92.i.i, %wide.trip.count93.i.i
  br i1 %exitcond94.not.i.i, label %oid_encoded2subid.exitthread-pre-split, label %.lr.ph89.i.i, !llvm.loop !14

oid_encoded2subid.exitthread-pre-split:           ; preds = %39
  %.pr = load ptr, ptr %3, align 8
  br label %oid_encoded2subid.exit

oid_encoded2subid.exit:                           ; preds = %oid_encoded2subid.exitthread-pre-split, %16, %17
  %40 = phi ptr [ %.pr, %oid_encoded2subid.exitthread-pre-split ], [ %13, %16 ], [ %13, %17 ]
  %.not.i = icmp eq ptr %40, null
  br i1 %.not.i, label %44, label %41

41:                                               ; preds = %oid_encoded2subid.exit
  %42 = load i32, ptr %40, align 4
  %43 = icmp ult i32 %42, 3
  br i1 %43, label %.preheader.i, label %44

.preheader.i:                                     ; preds = %41
  %.not33.i = icmp eq i32 %.064.lcssa.i.i, 0
  br i1 %.not33.i, label %._crit_edge.i, label %.lr.ph.i

44:                                               ; preds = %oid_encoded2subid.exit.thread, %41, %oid_encoded2subid.exit
  %.052.i.i9 = phi i32 [ 0, %oid_encoded2subid.exit.thread ], [ %.064.lcssa.i.i, %41 ], [ %.064.lcssa.i.i, %oid_encoded2subid.exit ]
  store i32 0, ptr %4, align 4
  br label %oid_get.exit

.lr.ph.i:                                         ; preds = %.preheader.i, %50
  %indvars.iv.i = phi i64 [ %indvars.iv.next.i, %50 ], [ 0, %.preheader.i ]
  %.02327.i = phi ptr [ %49, %50 ], [ @oid_root, %.preheader.i ]
  %45 = getelementptr inbounds nuw i8, ptr %.02327.i, i64 24
  %46 = load ptr, ptr %45, align 8
  %47 = getelementptr i32, ptr %40, i64 %indvars.iv.i
  %48 = load i32, ptr %47, align 4
  %49 = tail call ptr @wmem_tree_lookup32(ptr noundef %46, i32 noundef %48)
  %.not26.i = icmp eq ptr %49, null
  br i1 %.not26.i, label %._crit_edge.loopexit.split.loop.exit.i, label %50

50:                                               ; preds = %.lr.ph.i
  %indvars.iv.next.i = add nuw nsw i64 %indvars.iv.i, 1
  %exitcond.not.i = icmp eq i64 %indvars.iv.next.i, %11
  br i1 %exitcond.not.i, label %._crit_edge.i, label %.lr.ph.i, !llvm.loop !15

._crit_edge.loopexit.split.loop.exit.i:           ; preds = %.lr.ph.i
  %51 = trunc nuw i64 %indvars.iv.i to i32
  br label %._crit_edge.i

._crit_edge.i:                                    ; preds = %50, %._crit_edge.loopexit.split.loop.exit.i, %.preheader.i
  %.023.lcssa.i = phi ptr [ @oid_root, %.preheader.i ], [ %.02327.i, %._crit_edge.loopexit.split.loop.exit.i ], [ %49, %50 ]
  %.022.lcssa.i = phi i32 [ 0, %.preheader.i ], [ %51, %._crit_edge.loopexit.split.loop.exit.i ], [ %.064.lcssa.i.i, %50 ]
  store i32 %.022.lcssa.i, ptr %4, align 4
  %52 = sub i32 %.064.lcssa.i.i, %.022.lcssa.i
  br label %oid_get.exit

oid_get.exit:                                     ; preds = %44, %._crit_edge.i
  %storemerge.i = phi i32 [ %52, %._crit_edge.i ], [ %.052.i.i9, %44 ]
  %.0.i = phi ptr [ %.023.lcssa.i, %._crit_edge.i ], [ @oid_root, %44 ]
  store i32 %storemerge.i, ptr %5, align 4
  ret ptr %.0.i
}